; Function Attrs: mustprogress nounwind uwtable
define hidden noundef zeroext i1 @_ZN5clang6driver10toolchains9BareMetal13handlesTargetERKN4llvm6TripleE(ptr noundef nonnull align 8 dereferenceable(56) %0) local_unnamed_addr #0 align 2 {
  %2 = getelementptr inbounds nuw i8, ptr %0, i64 32
  %3 = load i32, ptr %2, align 8
  switch i32 %3, label %_ZL14isARMBareMetalRKN4llvm6TripleE.exit.thread [
    i32 1, label %4
    i32 35, label %4
    i32 2, label %4
    i32 36, label %4
  ]

4:                                                ; preds = %1, %1, %1, %1
  %5 = getelementptr inbounds nuw i8, ptr %0, i64 40
  %6 = load i32, ptr %5, align 8
  %.not12.i = icmp eq i32 %6, 0
  %7 = getelementptr inbounds nuw i8, ptr %0, i64 44
  %8 = load i32, ptr %7, align 4
  %.not13.i = icmp eq i32 %8, 0
  %or.cond.i = select i1 %.not12.i, i1 %.not13.i, i1 false
  br i1 %or.cond.i, label %_ZL14isARMBareMetalRKN4llvm6TripleE.exit, label %_ZL14isARMBareMetalRKN4llvm6TripleE.exit.thread

_ZL14isARMBareMetalRKN4llvm6TripleE.exit:         ; preds = %4
  %9 = getelementptr inbounds nuw i8, ptr %0, i64 48
  %10 = load i32, ptr %9, align 8
  %11 = and i32 %10, -2
  %switch.i = icmp eq i32 %11, 12
  br i1 %switch.i, label %_ZL14isPPCBareMetalRKN4llvm6TripleE.exit, label %_ZL14isARMBareMetalRKN4llvm6TripleE.exit.thread

_ZL14isARMBareMetalRKN4llvm6TripleE.exit.thread:  ; preds = %1, %4, %_ZL14isARMBareMetalRKN4llvm6TripleE.exit
  %.off.i = add i32 %3, -3
  %switch.i4 = icmp ult i32 %.off.i, 2
  br i1 %switch.i4, label %12, label %_ZL18isAArch64BareMetalRKN4llvm6TripleE.exit.thread

12:                                               ; preds = %_ZL14isARMBareMetalRKN4llvm6TripleE.exit.thread
  %13 = getelementptr inbounds nuw i8, ptr %0, i64 40
  %14 = load i32, ptr %13, align 8
  %.not7.i = icmp eq i32 %14, 0
  %15 = getelementptr inbounds nuw i8, ptr %0, i64 44
  %16 = load i32, ptr %15, align 4
  %.not8.i = icmp eq i32 %16, 0
  %or.cond.i6 = select i1 %.not7.i, i1 %.not8.i, i1 false
  br i1 %or.cond.i6, label %17, label %_ZL18isAArch64BareMetalRKN4llvm6TripleE.exit.thread

17:                                               ; preds = %12
  %18 = tail call { ptr, i64 } @_ZNK4llvm6Triple18getEnvironmentNameEv(ptr noundef nonnull align 8 dereferenceable(56) %0) #15
  %19 = extractvalue { ptr, i64 } %18, 1
  %.not.i.i = icmp eq i64 %19, 3
  br i1 %.not.i.i, label %_ZL18isAArch64BareMetalRKN4llvm6TripleE.exit, label %_ZL18isAArch64BareMetalRKN4llvm6TripleE.exit.thread

_ZL18isAArch64BareMetalRKN4llvm6TripleE.exit:     ; preds = %17
  %20 = extractvalue { ptr, i64 } %18, 0
  %bcmp.i.i = tail call i32 @bcmp(ptr noundef nonnull dereferenceable(3) %20, ptr noundef nonnull dereferenceable(3) @.str.33, i64 3)
  %21 = icmp eq i32 %bcmp.i.i, 0
  br i1 %21, label %_ZL14isPPCBareMetalRKN4llvm6TripleE.exit, label %_ZL18isAArch64BareMetalRKN4llvm6TripleE.exit.thread

_ZL18isAArch64BareMetalRKN4llvm6TripleE.exit.thread: ; preds = %_ZL14isARMBareMetalRKN4llvm6TripleE.exit.thread, %17, %12, %_ZL18isAArch64BareMetalRKN4llvm6TripleE.exit
  %22 = load i32, ptr %2, align 8
  %23 = add i32 %22, -27
  %spec.select.i.i = icmp ult i32 %23, 2
  %24 = getelementptr inbounds nuw i8, ptr %0, i64 40
  %25 = load i32, ptr %24, align 8
  %.not.i = icmp eq i32 %25, 0
  %or.cond.i7 = select i1 %spec.select.i.i, i1 %.not.i, i1 false
  %26 = getelementptr inbounds nuw i8, ptr %0, i64 44
  %27 = load i32, ptr %26, align 4
  %.not5.i = icmp eq i32 %27, 0
  %or.cond8.i = select i1 %or.cond.i7, i1 %.not5.i, i1 false
  br i1 %or.cond8.i, label %28, label %_ZL16isRISCVBareMetalRKN4llvm6TripleE.exit.thread

28:                                               ; preds = %_ZL18isAArch64BareMetalRKN4llvm6TripleE.exit.thread
  %29 = tail call { ptr, i64 } @_ZNK4llvm6Triple18getEnvironmentNameEv(ptr noundef nonnull align 8 dereferenceable(56) %0) #15
  %30 = extractvalue { ptr, i64 } %29, 1
  %.not.i.i9 = icmp eq i64 %30, 3
  br i1 %.not.i.i9, label %_ZL16isRISCVBareMetalRKN4llvm6TripleE.exit, label %_ZL16isRISCVBareMetalRKN4llvm6TripleE.exit.thread

_ZL16isRISCVBareMetalRKN4llvm6TripleE.exit:       ; preds = %28
  %31 = extractvalue { ptr, i64 } %29, 0
  %bcmp.i.i10 = tail call i32 @bcmp(ptr noundef nonnull dereferenceable(3) %31, ptr noundef nonnull dereferenceable(3) @.str.33, i64 3)
  %32 = icmp eq i32 %bcmp.i.i10, 0
  br i1 %32, label %_ZL14isPPCBareMetalRKN4llvm6TripleE.exit, label %_ZL16isRISCVBareMetalRKN4llvm6TripleE.exit.thread

_ZL16isRISCVBareMetalRKN4llvm6TripleE.exit.thread: ; preds = %28, %_ZL18isAArch64BareMetalRKN4llvm6TripleE.exit.thread, %_ZL16isRISCVBareMetalRKN4llvm6TripleE.exit
  %33 = load i32, ptr %2, align 8
  %34 = add i32 %33, -21
  %switch.selectcmp.i.i = icmp ult i32 %34, 4
  %35 = load i32, ptr %26, align 4
  %36 = icmp eq i32 %35, 0
  %or.cond.i11 = select i1 %switch.selectcmp.i.i, i1 %36, i1 false
  br i1 %or.cond.i11, label %37, label %_ZL14isPPCBareMetalRKN4llvm6TripleE.exit

37:                                               ; preds = %_ZL16isRISCVBareMetalRKN4llvm6TripleE.exit.thread
  %38 = getelementptr inbounds nuw i8, ptr %0, i64 48
  %39 = load i32, ptr %38, align 8
  %40 = icmp eq i32 %39, 12
  br label %_ZL14isPPCBareMetalRKN4llvm6TripleE.exit

_ZL14isPPCBareMetalRKN4llvm6TripleE.exit:         ; preds = %37, %_ZL16isRISCVBareMetalRKN4llvm6TripleE.exit.thread, %_ZL16isRISCVBareMetalRKN4llvm6TripleE.exit, %_ZL18isAArch64BareMetalRKN4llvm6TripleE.exit, %_ZL14isARMBareMetalRKN4llvm6TripleE.exit
  %41 = phi i1 [ true, %_ZL16isRISCVBareMetalRKN4llvm6TripleE.exit ], [ true, %_ZL18isAArch64BareMetalRKN4llvm6TripleE.exit ], [ true, %_ZL14isARMBareMetalRKN4llvm6TripleE.exit ], [ false, %_ZL16isRISCVBareMetalRKN4llvm6TripleE.exit.thread ], [ %40, %37 ]
  ret i1 %41
}